; Function Attrs: mustprogress nounwind uwtable
define dso_local void @_ZN4llvm15DebugInfoFinder15processLocationERKNS_6ModuleEPKNS_10DILocationE(ptr noundef nonnull align 8 dereferenceable(688) %0, ptr nonnull readnone align 8 captures(none) %1, ptr noundef %2) local_unnamed_addr #0 align 2 {
  %.not9 = icmp eq ptr %2, null
  br i1 %.not9, label %tailrecurse._crit_edge, label %.lr.ph

.lr.ph:                                           ; preds = %3, %_ZNK4llvm10DILocation12getInlinedAtEv.exit
  %.tr810 = phi ptr [ %41, %_ZNK4llvm10DILocation12getInlinedAtEv.exit ], [ %2, %3 ]
  %4 = getelementptr inbounds i8, ptr %.tr810, i64 -16
  %5 = load i64, ptr %4, align 8
  %6 = and i64 %5, 2
  %.not.i.i.i.i = icmp eq i64 %6, 0
  br i1 %.not.i.i.i.i, label %11, label %7

7:                                                ; preds = %.lr.ph
  %8 = getelementptr inbounds i8, ptr %.tr810, i64 -32
  %9 = load ptr, ptr %8, align 8
  %10 = tail call noundef i64 @_ZNK4llvm15SmallVectorBaseIjE4sizeEv(ptr noundef nonnull align 8 dereferenceable(16) %8) #15
  br label %_ZNK4llvm10DILocation8getScopeEv.exit

11:                                               ; preds = %.lr.ph
  %12 = lshr i64 %5, 2
  %13 = and i64 %12, 15
  %14 = sub nsw i64 0, %13
  %15 = getelementptr inbounds %"class.llvm::MDOperand", ptr %4, i64 %14
  br label %_ZNK4llvm10DILocation8getScopeEv.exit

_ZNK4llvm10DILocation8getScopeEv.exit:            ; preds = %7, %11
  %.sroa.0.0.i.i.i.i = phi ptr [ %15, %11 ], [ %9, %7 ]
  %16 = load ptr, ptr %.sroa.0.0.i.i.i.i, align 8
  tail call void @_ZN4llvm15DebugInfoFinder12processScopeEPNS_7DIScopeE(ptr noundef nonnull align 8 dereferenceable(688) %0, ptr noundef %16)
  %17 = load i64, ptr %4, align 8
  %18 = and i64 %17, 2
  %.not.i.i.i.i5 = icmp eq i64 %18, 0
  br i1 %.not.i.i.i.i5, label %19, label %23

19:                                               ; preds = %_ZNK4llvm10DILocation8getScopeEv.exit
  %20 = trunc i64 %17 to i32
  %21 = lshr i32 %20, 6
  %22 = and i32 %21, 15
  br label %_ZNK4llvm6MDNode14getNumOperandsEv.exit.i.i

23:                                               ; preds = %_ZNK4llvm10DILocation8getScopeEv.exit
  %24 = getelementptr inbounds i8, ptr %.tr810, i64 -32
  %25 = tail call noundef i64 @_ZNK4llvm15SmallVectorBaseIjE4sizeEv(ptr noundef nonnull align 8 dereferenceable(16) %24) #15
  %26 = trunc i64 %25 to i32
  br label %_ZNK4llvm6MDNode14getNumOperandsEv.exit.i.i

_ZNK4llvm6MDNode14getNumOperandsEv.exit.i.i:      ; preds = %23, %19
  %.0.i.i.i.i = phi i32 [ %26, %23 ], [ %22, %19 ]
  %27 = icmp eq i32 %.0.i.i.i.i, 2
  br i1 %27, label %28, label %tailrecurse._crit_edge

28:                                               ; preds = %_ZNK4llvm6MDNode14getNumOperandsEv.exit.i.i
  %29 = load i64, ptr %4, align 8
  %30 = and i64 %29, 2
  %.not.i.i2.i.i = icmp eq i64 %30, 0
  br i1 %.not.i.i2.i.i, label %35, label %31

31:                                               ; preds = %28
  %32 = getelementptr inbounds i8, ptr %.tr810, i64 -32
  %33 = load ptr, ptr %32, align 8
  %34 = tail call noundef i64 @_ZNK4llvm15SmallVectorBaseIjE4sizeEv(ptr noundef nonnull align 8 dereferenceable(16) %32) #15
  br label %_ZNK4llvm10DILocation12getInlinedAtEv.exit

35:                                               ; preds = %28
  %36 = lshr i64 %29, 2
  %37 = and i64 %36, 15
  %38 = sub nsw i64 0, %37
  %39 = getelementptr inbounds %"class.llvm::MDOperand", ptr %4, i64 %38
  br label %_ZNK4llvm10DILocation12getInlinedAtEv.exit

_ZNK4llvm10DILocation12getInlinedAtEv.exit:       ; preds = %31, %35
  %.sroa.0.0.i.i.i.i6 = phi ptr [ %39, %35 ], [ %33, %31 ]
  %40 = getelementptr inbounds nuw i8, ptr %.sroa.0.0.i.i.i.i6, i64 8
  %41 = load ptr, ptr %40, align 8
  %.not = icmp eq ptr %41, null
  br i1 %.not, label %tailrecurse._crit_edge, label %.lr.ph

tailrecurse._crit_edge:                           ; preds = %_ZNK4llvm6MDNode14getNumOperandsEv.exit.i.i, %_ZNK4llvm10DILocation12getInlinedAtEv.exit, %3
  ret void
}